#include <math.h>
#include <stdio.h>
#include <stdlib.h>
#include <string.h>

int main()
{
  int row,col,i,j,u[100][100],a,sum=0;
  scanf("%d%d",&row,&col);
  for(i=0;i<row;i++)
   {
      for(j=0;j<col;j++)
      {
         scanf("%d",&u[i][j]);
       }
   } 
  for(a=0;a<row/2+1;a++)
  {
      for(i=a,j=a;j<col-a;j++)
      {
        printf("%d\n",u[i][j]);
        sum++;
        if(sum==row*col)
             break;
      }
      if(sum==row*col)
             break;
      for(j=col-a-1,i=a+1;i<row-a;i++)
      {
        printf("%d\n",u[i][j]);
        sum++;
        if(sum==row*col)
             break;
       }
       if(sum==row*col)
             break;

      for(i=row-a-1,j=col-a-2;j>=a;j--)
        {
        printf("%d\n",u[i][j]);
        sum++;
       if(sum==row*col)
             break;
       }
       if(sum==row*col)
             break; 
      for(j=a,i=row-a-2;i>a;i--)
        {
        printf("%d\n",u[i][j]);
        sum++;
       if(sum==row*col)
             break;
       }
	   if(sum==row*col)
             break;
  }
  
  return 0;
}
