; ModuleID = '46/66.c'
source_filename = "46/66.c"
target datalayout = "e-m:e-p270:32:32-p271:32:32-p272:64:64-i64:64-f80:128-n8:16:32:64-S128"
target triple = "x86_64-pc-linux-gnu"

@.str = private unnamed_addr constant [5 x i8] c"%d%d\00", align 1
@.str.1 = private unnamed_addr constant [3 x i8] c"%d\00", align 1
@.str.2 = private unnamed_addr constant [4 x i8] c"%d\0A\00", align 1

; Function Attrs: noinline nounwind uwtable
define dso_local i32 @main() #0 {
  %1 = alloca i32, align 4
  %2 = alloca i32, align 4
  %3 = alloca i32, align 4
  %4 = alloca i32, align 4
  %5 = alloca i32, align 4
  %6 = alloca [100 x [100 x i32]], align 16
  %7 = alloca i32, align 4
  %8 = alloca i32, align 4
  store i32 0, i32* %1, align 4
  store i32 0, i32* %8, align 4
  %9 = call i32 (i8*, ...) @__isoc99_scanf(i8* getelementptr inbounds ([5 x i8], [5 x i8]* @.str, i64 0, i64 0), i32* %2, i32* %3)
  store i32 0, i32* %4, align 4
  br label %10

10:                                               ; preds = %31, %0
  %11 = load i32, i32* %4, align 4
  %12 = load i32, i32* %2, align 4
  %13 = icmp slt i32 %11, %12
  br i1 %13, label %14, label %34

14:                                               ; preds = %10
  store i32 0, i32* %5, align 4
  br label %15

15:                                               ; preds = %27, %14
  %16 = load i32, i32* %5, align 4
  %17 = load i32, i32* %3, align 4
  %18 = icmp slt i32 %16, %17
  br i1 %18, label %19, label %30

19:                                               ; preds = %15
  %20 = load i32, i32* %4, align 4
  %21 = sext i32 %20 to i64
  %22 = getelementptr inbounds [100 x [100 x i32]], [100 x [100 x i32]]* %6, i64 0, i64 %21
  %23 = load i32, i32* %5, align 4
  %24 = sext i32 %23 to i64
  %25 = getelementptr inbounds [100 x i32], [100 x i32]* %22, i64 0, i64 %24
  %26 = call i32 (i8*, ...) @__isoc99_scanf(i8* getelementptr inbounds ([3 x i8], [3 x i8]* @.str.1, i64 0, i64 0), i32* %25)
  br label %27

27:                                               ; preds = %19
  %28 = load i32, i32* %5, align 4
  %29 = add nsw i32 %28, 1
  store i32 %29, i32* %5, align 4
  br label %15

30:                                               ; preds = %15
  br label %31

31:                                               ; preds = %30
  %32 = load i32, i32* %4, align 4
  %33 = add nsw i32 %32, 1
  store i32 %33, i32* %4, align 4
  br label %10

34:                                               ; preds = %10
  store i32 0, i32* %7, align 4
  br label %35

35:                                               ; preds = %199, %34
  %36 = load i32, i32* %7, align 4
  %37 = load i32, i32* %2, align 4
  %38 = sdiv i32 %37, 2
  %39 = add nsw i32 %38, 1
  %40 = icmp slt i32 %36, %39
  br i1 %40, label %41, label %202

41:                                               ; preds = %35
  %42 = load i32, i32* %7, align 4
  store i32 %42, i32* %4, align 4
  %43 = load i32, i32* %7, align 4
  store i32 %43, i32* %5, align 4
  br label %44

44:                                               ; preds = %68, %41
  %45 = load i32, i32* %5, align 4
  %46 = load i32, i32* %3, align 4
  %47 = load i32, i32* %7, align 4
  %48 = sub nsw i32 %46, %47
  %49 = icmp slt i32 %45, %48
  br i1 %49, label %50, label %71

50:                                               ; preds = %44
  %51 = load i32, i32* %4, align 4
  %52 = sext i32 %51 to i64
  %53 = getelementptr inbounds [100 x [100 x i32]], [100 x [100 x i32]]* %6, i64 0, i64 %52
  %54 = load i32, i32* %5, align 4
  %55 = sext i32 %54 to i64
  %56 = getelementptr inbounds [100 x i32], [100 x i32]* %53, i64 0, i64 %55
  %57 = load i32, i32* %56, align 4
  %58 = call i32 (i8*, ...) @printf(i8* getelementptr inbounds ([4 x i8], [4 x i8]* @.str.2, i64 0, i64 0), i32 %57)
  %59 = load i32, i32* %8, align 4
  %60 = add nsw i32 %59, 1
  store i32 %60, i32* %8, align 4
  %61 = load i32, i32* %8, align 4
  %62 = load i32, i32* %2, align 4
  %63 = load i32, i32* %3, align 4
  %64 = mul nsw i32 %62, %63
  %65 = icmp eq i32 %61, %64
  br i1 %65, label %66, label %67

66:                                               ; preds = %50
  br label %71

67:                                               ; preds = %50
  br label %68

68:                                               ; preds = %67
  %69 = load i32, i32* %5, align 4
  %70 = add nsw i32 %69, 1
  store i32 %70, i32* %5, align 4
  br label %44

71:                                               ; preds = %66, %44
  %72 = load i32, i32* %8, align 4
  %73 = load i32, i32* %2, align 4
  %74 = load i32, i32* %3, align 4
  %75 = mul nsw i32 %73, %74
  %76 = icmp eq i32 %72, %75
  br i1 %76, label %77, label %78

77:                                               ; preds = %71
  br label %202

78:                                               ; preds = %71
  %79 = load i32, i32* %3, align 4
  %80 = load i32, i32* %7, align 4
  %81 = sub nsw i32 %79, %80
  %82 = sub nsw i32 %81, 1
  store i32 %82, i32* %5, align 4
  %83 = load i32, i32* %7, align 4
  %84 = add nsw i32 %83, 1
  store i32 %84, i32* %4, align 4
  br label %85

85:                                               ; preds = %109, %78
  %86 = load i32, i32* %4, align 4
  %87 = load i32, i32* %2, align 4
  %88 = load i32, i32* %7, align 4
  %89 = sub nsw i32 %87, %88
  %90 = icmp slt i32 %86, %89
  br i1 %90, label %91, label %112

91:                                               ; preds = %85
  %92 = load i32, i32* %4, align 4
  %93 = sext i32 %92 to i64
  %94 = getelementptr inbounds [100 x [100 x i32]], [100 x [100 x i32]]* %6, i64 0, i64 %93
  %95 = load i32, i32* %5, align 4
  %96 = sext i32 %95 to i64
  %97 = getelementptr inbounds [100 x i32], [100 x i32]* %94, i64 0, i64 %96
  %98 = load i32, i32* %97, align 4
  %99 = call i32 (i8*, ...) @printf(i8* getelementptr inbounds ([4 x i8], [4 x i8]* @.str.2, i64 0, i64 0), i32 %98)
  %100 = load i32, i32* %8, align 4
  %101 = add nsw i32 %100, 1
  store i32 %101, i32* %8, align 4
  %102 = load i32, i32* %8, align 4
  %103 = load i32, i32* %2, align 4
  %104 = load i32, i32* %3, align 4
  %105 = mul nsw i32 %103, %104
  %106 = icmp eq i32 %102, %105
  br i1 %106, label %107, label %108

107:                                              ; preds = %91
  br label %112

108:                                              ; preds = %91
  br label %109

109:                                              ; preds = %108
  %110 = load i32, i32* %4, align 4
  %111 = add nsw i32 %110, 1
  store i32 %111, i32* %4, align 4
  br label %85

112:                                              ; preds = %107, %85
  %113 = load i32, i32* %8, align 4
  %114 = load i32, i32* %2, align 4
  %115 = load i32, i32* %3, align 4
  %116 = mul nsw i32 %114, %115
  %117 = icmp eq i32 %113, %116
  br i1 %117, label %118, label %119

118:                                              ; preds = %112
  br label %202

119:                                              ; preds = %112
  %120 = load i32, i32* %2, align 4
  %121 = load i32, i32* %7, align 4
  %122 = sub nsw i32 %120, %121
  %123 = sub nsw i32 %122, 1
  store i32 %123, i32* %4, align 4
  %124 = load i32, i32* %3, align 4
  %125 = load i32, i32* %7, align 4
  %126 = sub nsw i32 %124, %125
  %127 = sub nsw i32 %126, 2
  store i32 %127, i32* %5, align 4
  br label %128

128:                                              ; preds = %150, %119
  %129 = load i32, i32* %5, align 4
  %130 = load i32, i32* %7, align 4
  %131 = icmp sge i32 %129, %130
  br i1 %131, label %132, label %153

132:                                              ; preds = %128
  %133 = load i32, i32* %4, align 4
  %134 = sext i32 %133 to i64
  %135 = getelementptr inbounds [100 x [100 x i32]], [100 x [100 x i32]]* %6, i64 0, i64 %134
  %136 = load i32, i32* %5, align 4
  %137 = sext i32 %136 to i64
  %138 = getelementptr inbounds [100 x i32], [100 x i32]* %135, i64 0, i64 %137
  %139 = load i32, i32* %138, align 4
  %140 = call i32 (i8*, ...) @printf(i8* getelementptr inbounds ([4 x i8], [4 x i8]* @.str.2, i64 0, i64 0), i32 %139)
  %141 = load i32, i32* %8, align 4
  %142 = add nsw i32 %141, 1
  store i32 %142, i32* %8, align 4
  %143 = load i32, i32* %8, align 4
  %144 = load i32, i32* %2, align 4
  %145 = load i32, i32* %3, align 4
  %146 = mul nsw i32 %144, %145
  %147 = icmp eq i32 %143, %146
  br i1 %147, label %148, label %149

148:                                              ; preds = %132
  br label %153

149:                                              ; preds = %132
  br label %150

150:                                              ; preds = %149
  %151 = load i32, i32* %5, align 4
  %152 = add nsw i32 %151, -1
  store i32 %152, i32* %5, align 4
  br label %128

153:                                              ; preds = %148, %128
  %154 = load i32, i32* %8, align 4
  %155 = load i32, i32* %2, align 4
  %156 = load i32, i32* %3, align 4
  %157 = mul nsw i32 %155, %156
  %158 = icmp eq i32 %154, %157
  br i1 %158, label %159, label %160

159:                                              ; preds = %153
  br label %202

160:                                              ; preds = %153
  %161 = load i32, i32* %7, align 4
  store i32 %161, i32* %5, align 4
  %162 = load i32, i32* %2, align 4
  %163 = load i32, i32* %7, align 4
  %164 = sub nsw i32 %162, %163
  %165 = sub nsw i32 %164, 2
  store i32 %165, i32* %4, align 4
  br label %166

166:                                              ; preds = %188, %160
  %167 = load i32, i32* %4, align 4
  %168 = load i32, i32* %7, align 4
  %169 = icmp sgt i32 %167, %168
  br i1 %169, label %170, label %191

170:                                              ; preds = %166
  %171 = load i32, i32* %4, align 4
  %172 = sext i32 %171 to i64
  %173 = getelementptr inbounds [100 x [100 x i32]], [100 x [100 x i32]]* %6, i64 0, i64 %172
  %174 = load i32, i32* %5, align 4
  %175 = sext i32 %174 to i64
  %176 = getelementptr inbounds [100 x i32], [100 x i32]* %173, i64 0, i64 %175
  %177 = load i32, i32* %176, align 4
  %178 = call i32 (i8*, ...) @printf(i8* getelementptr inbounds ([4 x i8], [4 x i8]* @.str.2, i64 0, i64 0), i32 %177)
  %179 = load i32, i32* %8, align 4
  %180 = add nsw i32 %179, 1
  store i32 %180, i32* %8, align 4
  %181 = load i32, i32* %8, align 4
  %182 = load i32, i32* %2, align 4
  %183 = load i32, i32* %3, align 4
  %184 = mul nsw i32 %182, %183
  %185 = icmp eq i32 %181, %184
  br i1 %185, label %186, label %187

186:                                              ; preds = %170
  br label %191

187:                                              ; preds = %170
  br label %188

188:                                              ; preds = %187
  %189 = load i32, i32* %4, align 4
  %190 = add nsw i32 %189, -1
  store i32 %190, i32* %4, align 4
  br label %166

191:                                              ; preds = %186, %166
  %192 = load i32, i32* %8, align 4
  %193 = load i32, i32* %2, align 4
  %194 = load i32, i32* %3, align 4
  %195 = mul nsw i32 %193, %194
  %196 = icmp eq i32 %192, %195
  br i1 %196, label %197, label %198

197:                                              ; preds = %191
  br label %202

198:                                              ; preds = %191
  br label %199

199:                                              ; preds = %198
  %200 = load i32, i32* %7, align 4
  %201 = add nsw i32 %200, 1
  store i32 %201, i32* %7, align 4
  br label %35

202:                                              ; preds = %197, %159, %118, %77, %35
  ret i32 0
}

declare dso_local i32 @__isoc99_scanf(i8*, ...) #1

declare dso_local i32 @printf(i8*, ...) #1


!llvm.module.flags = !{!0}
!llvm.ident = !{!1}

!0 = !{i32 1, !"wchar_size", i32 4}
!1 = !{!"clang version 10.0.0-4ubuntu1 "}
